target datalayout = "e-m:e-p270:32:32-p271:32:32-p272:64:64-i64:64-i128:128-f80:128-n8:16:32:64-S128"
target triple = "x86_64-pc-linux-gnu"

%struct.FT_GlyphRec_ = type { ptr, ptr, i32, %struct.FT_Vector_ }
%struct.FT_Vector_ = type { i64, i64 }
%struct.FT_GlyphSlotRec_ = type { ptr, ptr, ptr, i32, %struct.FT_Generic_, %struct.FT_Glyph_Metrics_, i64, i64, %struct.FT_Vector_, i32, %struct.FT_Bitmap_, i32, i32, %struct.FT_Outline_, i32, ptr, ptr, i64, i64, i64, ptr, ptr }
%struct.FT_Generic_ = type { ptr, ptr }
%struct.FT_Glyph_Metrics_ = type { i64, i64, i64, i64, i64, i64, i64, i64 }
%struct.FT_Bitmap_ = type { i32, i32, i32, ptr, i16, i8, i8, ptr }
%struct.FT_Outline_ = type { i16, i16, ptr, ptr, ptr, i32 }
%struct.FT_Matrix_ = type { i64, i64, i64, i64 }
%struct.FT_LibraryRec_ = type { ptr, i32, i32, i32, i32, [32 x ptr], %struct.FT_ListRec_, ptr, ptr, [4 x ptr], [3 x %struct.FT_Vector_], i32 }
%struct.FT_ListRec_ = type { ptr, ptr }
%struct.FT_SVG_DocumentRec_ = type { ptr, i64, %struct.FT_Size_Metrics_, i16, i16, i16, %struct.FT_Matrix_, %struct.FT_Vector_ }
%struct.FT_Size_Metrics_ = type { i16, i16, i64, i64, i64, i64, i64, i64 }
%struct.FT_SvgGlyphRec_ = type { %struct.FT_GlyphRec_, ptr, i64, i32, %struct.FT_Size_Metrics_, i16, i16, i16, %struct.FT_Matrix_, %struct.FT_Vector_ }

; Function Attrs: nounwind uwtable
define internal i32 @ft_svg_glyph_prepare(ptr noundef %0, ptr noundef %1) #0 {
  %3 = alloca i32, align 4
  %4 = alloca ptr, align 8
  %5 = alloca ptr, align 8
  %6 = alloca ptr, align 8
  %7 = alloca i32, align 4
  %8 = alloca ptr, align 8
  %9 = alloca ptr, align 8
  %10 = alloca i32, align 4
  store ptr %0, ptr %4, align 8, !tbaa !3
  store ptr %1, ptr %5, align 8, !tbaa !8
  call void @llvm.lifetime.start.p0(i64 8, ptr %6) #6
  %11 = load ptr, ptr %4, align 8, !tbaa !3
  store ptr %11, ptr %6, align 8, !tbaa !75
  call void @llvm.lifetime.start.p0(i64 4, ptr %7) #6
  store i32 0, ptr %7, align 4, !tbaa !12
  call void @llvm.lifetime.start.p0(i64 8, ptr %8) #6
  %12 = load ptr, ptr %4, align 8, !tbaa !3
  %13 = getelementptr inbounds nuw %struct.FT_GlyphRec_, ptr %12, i32 0, i32 0
  %14 = load ptr, ptr %13, align 8, !tbaa !14
  %15 = getelementptr inbounds nuw %struct.FT_LibraryRec_, ptr %14, i32 0, i32 0
  %16 = load ptr, ptr %15, align 8, !tbaa !77
  store ptr %16, ptr %8, align 8, !tbaa !84
  call void @llvm.lifetime.start.p0(i64 8, ptr %9) #6
  store ptr null, ptr %9, align 8, !tbaa !86
  %17 = load ptr, ptr %8, align 8, !tbaa !84
  %18 = call ptr @ft_mem_alloc(ptr noundef %17, i64 noundef 128, ptr noundef %7)
  store ptr %18, ptr %9, align 8, !tbaa !86
  %19 = load i32, ptr %7, align 4, !tbaa !12
  %20 = icmp ne i32 %19, 0
  br i1 %20, label %21, label %23

21:                                               ; preds = %2
  %22 = load i32, ptr %7, align 4, !tbaa !12
  store i32 %22, ptr %3, align 4
  store i32 1, ptr %10, align 4
  br label %72

23:                                               ; preds = %2
  %24 = load ptr, ptr %6, align 8, !tbaa !75
  %25 = getelementptr inbounds nuw %struct.FT_SvgGlyphRec_, ptr %24, i32 0, i32 1
  %26 = load ptr, ptr %25, align 8, !tbaa !92
  %27 = load ptr, ptr %9, align 8, !tbaa !86
  %28 = getelementptr inbounds nuw %struct.FT_SVG_DocumentRec_, ptr %27, i32 0, i32 0
  store ptr %26, ptr %28, align 8, !tbaa !106
  %29 = load ptr, ptr %6, align 8, !tbaa !75
  %30 = getelementptr inbounds nuw %struct.FT_SvgGlyphRec_, ptr %29, i32 0, i32 2
  %31 = load i64, ptr %30, align 8, !tbaa !94
  %32 = load ptr, ptr %9, align 8, !tbaa !86
  %33 = getelementptr inbounds nuw %struct.FT_SVG_DocumentRec_, ptr %32, i32 0, i32 1
  store i64 %31, ptr %33, align 8, !tbaa !88
  %34 = load ptr, ptr %9, align 8, !tbaa !86
  %35 = getelementptr inbounds nuw %struct.FT_SVG_DocumentRec_, ptr %34, i32 0, i32 2
  %36 = load ptr, ptr %6, align 8, !tbaa !75
  %37 = getelementptr inbounds nuw %struct.FT_SvgGlyphRec_, ptr %36, i32 0, i32 4
  call void @llvm.memcpy.p0.p0.i64(ptr align 8 %35, ptr align 8 %37, i64 56, i1 false), !tbaa.struct !97
  %38 = load ptr, ptr %6, align 8, !tbaa !75
  %39 = getelementptr inbounds nuw %struct.FT_SvgGlyphRec_, ptr %38, i32 0, i32 5
  %40 = load i16, ptr %39, align 8, !tbaa !99
  %41 = load ptr, ptr %9, align 8, !tbaa !86
  %42 = getelementptr inbounds nuw %struct.FT_SVG_DocumentRec_, ptr %41, i32 0, i32 3
  store i16 %40, ptr %42, align 8, !tbaa !98
  %43 = load ptr, ptr %6, align 8, !tbaa !75
  %44 = getelementptr inbounds nuw %struct.FT_SvgGlyphRec_, ptr %43, i32 0, i32 6
  %45 = load i16, ptr %44, align 2, !tbaa !101
  %46 = load ptr, ptr %9, align 8, !tbaa !86
  %47 = getelementptr inbounds nuw %struct.FT_SVG_DocumentRec_, ptr %46, i32 0, i32 4
  store i16 %45, ptr %47, align 2, !tbaa !100
  %48 = load ptr, ptr %6, align 8, !tbaa !75
  %49 = getelementptr inbounds nuw %struct.FT_SvgGlyphRec_, ptr %48, i32 0, i32 7
  %50 = load i16, ptr %49, align 4, !tbaa !103
  %51 = load ptr, ptr %9, align 8, !tbaa !86
  %52 = getelementptr inbounds nuw %struct.FT_SVG_DocumentRec_, ptr %51, i32 0, i32 5
  store i16 %50, ptr %52, align 4, !tbaa !102
  %53 = load ptr, ptr %9, align 8, !tbaa !86
  %54 = getelementptr inbounds nuw %struct.FT_SVG_DocumentRec_, ptr %53, i32 0, i32 6
  %55 = load ptr, ptr %6, align 8, !tbaa !75
  %56 = getelementptr inbounds nuw %struct.FT_SvgGlyphRec_, ptr %55, i32 0, i32 8
  call void @llvm.memcpy.p0.p0.i64(ptr align 8 %54, ptr align 8 %56, i64 32, i1 false), !tbaa.struct !104
  %57 = load ptr, ptr %9, align 8, !tbaa !86
  %58 = getelementptr inbounds nuw %struct.FT_SVG_DocumentRec_, ptr %57, i32 0, i32 7
  %59 = load ptr, ptr %6, align 8, !tbaa !75
  %60 = getelementptr inbounds nuw %struct.FT_SvgGlyphRec_, ptr %59, i32 0, i32 9
  call void @llvm.memcpy.p0.p0.i64(ptr align 8 %58, ptr align 8 %60, i64 16, i1 false), !tbaa.struct !105
  %61 = load ptr, ptr %5, align 8, !tbaa !8
  %62 = getelementptr inbounds nuw %struct.FT_GlyphSlotRec_, ptr %61, i32 0, i32 9
  store i32 1398163232, ptr %62, align 8, !tbaa !21
  %63 = load ptr, ptr %6, align 8, !tbaa !75
  %64 = getelementptr inbounds nuw %struct.FT_SvgGlyphRec_, ptr %63, i32 0, i32 3
  %65 = load i32, ptr %64, align 8, !tbaa !96
  %66 = load ptr, ptr %5, align 8, !tbaa !8
  %67 = getelementptr inbounds nuw %struct.FT_GlyphSlotRec_, ptr %66, i32 0, i32 3
  store i32 %65, ptr %67, align 8, !tbaa !95
  %68 = load ptr, ptr %9, align 8, !tbaa !86
  %69 = load ptr, ptr %5, align 8, !tbaa !8
  %70 = getelementptr inbounds nuw %struct.FT_GlyphSlotRec_, ptr %69, i32 0, i32 20
  store ptr %68, ptr %70, align 8, !tbaa !85
  %71 = load i32, ptr %7, align 4, !tbaa !12
  store i32 %71, ptr %3, align 4
  store i32 1, ptr %10, align 4
  br label %72

72:                                               ; preds = %23, %21
  call void @llvm.lifetime.end.p0(i64 8, ptr %9) #6
  call void @llvm.lifetime.end.p0(i64 8, ptr %8) #6
  call void @llvm.lifetime.end.p0(i64 4, ptr %7) #6
  call void @llvm.lifetime.end.p0(i64 8, ptr %6) #6
  %73 = load i32, ptr %3, align 4
  ret i32 %73
}