; Function Attrs: nounwind uwtable
define internal i32 @ft_svg_glyph_prepare(ptr noundef readonly captures(none) %0, ptr noundef writeonly captures(none) %1) #0 {
  %3 = alloca i32, align 4
  call void @llvm.lifetime.start.p0(i64 4, ptr nonnull %3) #6
  store i32 0, ptr %3, align 4, !tbaa !38
  %4 = load ptr, ptr %0, align 8, !tbaa !3
  %5 = load ptr, ptr %4, align 8, !tbaa !61
  %6 = call ptr @ft_mem_alloc(ptr noundef %5, i64 noundef 128, ptr noundef nonnull %3) #6
  %7 = load i32, ptr %3, align 4, !tbaa !38
  %.not = icmp eq i32 %7, 0
  br i1 %.not, label %8, label %34

8:                                                ; preds = %2
  %9 = getelementptr inbounds nuw i8, ptr %0, i64 40
  %10 = load ptr, ptr %9, align 8, !tbaa !72
  store ptr %10, ptr %6, align 8, !tbaa !87
  %11 = getelementptr inbounds nuw i8, ptr %0, i64 48
  %12 = load i64, ptr %11, align 8, !tbaa !74
  %13 = getelementptr inbounds nuw i8, ptr %6, i64 8
  store i64 %12, ptr %13, align 8, !tbaa !69
  %14 = getelementptr inbounds nuw i8, ptr %6, i64 16
  %15 = getelementptr inbounds nuw i8, ptr %0, i64 64
  call void @llvm.memcpy.p0.p0.i64(ptr noundef nonnull align 8 dereferenceable(56) %14, ptr noundef nonnull align 8 dereferenceable(56) %15, i64 56, i1 false), !tbaa.struct !77
  %16 = getelementptr inbounds nuw i8, ptr %0, i64 120
  %17 = load i16, ptr %16, align 8, !tbaa !80
  %18 = getelementptr inbounds nuw i8, ptr %6, i64 72
  store i16 %17, ptr %18, align 8, !tbaa !79
  %19 = getelementptr inbounds nuw i8, ptr %0, i64 122
  %20 = load i16, ptr %19, align 2, !tbaa !82
  %21 = getelementptr inbounds nuw i8, ptr %6, i64 74
  store i16 %20, ptr %21, align 2, !tbaa !81
  %22 = getelementptr inbounds nuw i8, ptr %0, i64 124
  %23 = load i16, ptr %22, align 4, !tbaa !84
  %24 = getelementptr inbounds nuw i8, ptr %6, i64 76
  store i16 %23, ptr %24, align 4, !tbaa !83
  %25 = getelementptr inbounds nuw i8, ptr %6, i64 80
  %26 = getelementptr inbounds nuw i8, ptr %0, i64 128
  call void @llvm.memcpy.p0.p0.i64(ptr noundef nonnull align 8 dereferenceable(32) %25, ptr noundef nonnull align 8 dereferenceable(32) %26, i64 32, i1 false), !tbaa.struct !85
  %27 = getelementptr inbounds nuw i8, ptr %6, i64 112
  %28 = getelementptr inbounds nuw i8, ptr %0, i64 160
  call void @llvm.memcpy.p0.p0.i64(ptr noundef nonnull align 8 dereferenceable(16) %27, ptr noundef nonnull align 8 dereferenceable(16) %28, i64 16, i1 false), !tbaa.struct !86
  %29 = getelementptr inbounds nuw i8, ptr %1, i64 144
  store i32 1398163232, ptr %29, align 8, !tbaa !13
  %30 = getelementptr inbounds nuw i8, ptr %0, i64 56
  %31 = load i32, ptr %30, align 8, !tbaa !76
  %32 = getelementptr inbounds nuw i8, ptr %1, i64 24
  store i32 %31, ptr %32, align 8, !tbaa !75
  %33 = getelementptr inbounds nuw i8, ptr %1, i64 288
  store ptr %6, ptr %33, align 8, !tbaa !68
  br label %34

34:                                               ; preds = %2, %8
  call void @llvm.lifetime.end.p0(i64 4, ptr nonnull %3) #6
  ret i32 %7
}